; Function Attrs: mustprogress uwtable
define dso_local void @_ZN11flatbuffers28SimpleFloatConstantGeneratorC2EPKcS2_S2_(ptr noundef nonnull align 8 dereferenceable(104) %this, ptr noundef %nan_number, ptr noundef %pos_inf_number, ptr noundef %neg_inf_number) unnamed_addr #0 align 2 personality ptr @__gxx_personality_v0 {
entry:
  %ref.tmp = alloca %"class.std::allocator", align 1
  %ref.tmp2 = alloca %"class.std::allocator", align 1
  %ref.tmp5 = alloca %"class.std::allocator", align 1
  store ptr getelementptr inbounds ({ [10 x ptr] }, ptr @_ZTVN11flatbuffers28SimpleFloatConstantGeneratorE, i64 0, i32 0, i64 2), ptr %this, align 8
  %nan_number_ = getelementptr inbounds i8, ptr %this, i64 8
  call void @_ZNSaIcEC1Ev(ptr noundef nonnull align 1 dereferenceable(1) %ref.tmp) #12
  %call.i3 = invoke noundef ptr @_ZNSt7__cxx1112basic_stringIcSt11char_traitsIcESaIcEE13_M_local_dataEv(ptr noundef nonnull align 8 dereferenceable(32) %nan_number_)
          to label %call.i.noexc unwind label %lpad

call.i.noexc:                                     ; preds = %entry
  invoke void @_ZNSt7__cxx1112basic_stringIcSt11char_traitsIcESaIcEE12_Alloc_hiderC1EPcRKS3_(ptr noundef nonnull align 8 dereferenceable(8) %nan_number_, ptr noundef %call.i3, ptr noundef nonnull align 1 dereferenceable(1) %ref.tmp)
          to label %.noexc unwind label %lpad

.noexc:                                           ; preds = %call.i.noexc
  %cmp.i = icmp eq ptr %nan_number, null
  br i1 %cmp.i, label %if.then.i, label %if.end.i

if.then.i:                                        ; preds = %.noexc
  invoke void @_ZSt19__throw_logic_errorPKc(ptr noundef nonnull @.str.14) #15
          to label %invoke.cont.i unwind label %lpad.i

invoke.cont.i:                                    ; preds = %if.then.i
  unreachable

lpad.i:                                           ; preds = %if.end.i, %if.then.i
  %0 = landingpad { ptr, i32 }
          cleanup
  call void @_ZNSaIcED2Ev(ptr noundef nonnull align 1 dereferenceable(1) %nan_number_) #12
  br label %lpad.body

if.end.i:                                         ; preds = %.noexc
  %call.i.i = call noundef i64 @strlen(ptr noundef nonnull dereferenceable(1) %nan_number) #12
  %add.ptr.i = getelementptr inbounds i8, ptr %nan_number, i64 %call.i.i
  invoke void @_ZNSt7__cxx1112basic_stringIcSt11char_traitsIcESaIcEE12_M_constructIPKcEEvT_S8_St20forward_iterator_tag(ptr noundef nonnull align 8 dereferenceable(32) %nan_number_, ptr noundef nonnull %nan_number, ptr noundef nonnull %add.ptr.i)
          to label %invoke.cont unwind label %lpad.i

invoke.cont:                                      ; preds = %if.end.i
  call void @_ZNSaIcED1Ev(ptr noundef nonnull align 1 dereferenceable(1) %ref.tmp) #12
  %pos_inf_number_ = getelementptr inbounds i8, ptr %this, i64 40
  call void @_ZNSaIcEC1Ev(ptr noundef nonnull align 1 dereferenceable(1) %ref.tmp2) #12
  %call.i12 = invoke noundef ptr @_ZNSt7__cxx1112basic_stringIcSt11char_traitsIcESaIcEE13_M_local_dataEv(ptr noundef nonnull align 8 dereferenceable(32) %pos_inf_number_)
          to label %call.i.noexc11 unwind label %lpad3

call.i.noexc11:                                   ; preds = %invoke.cont
  invoke void @_ZNSt7__cxx1112basic_stringIcSt11char_traitsIcESaIcEE12_Alloc_hiderC1EPcRKS3_(ptr noundef nonnull align 8 dereferenceable(8) %pos_inf_number_, ptr noundef %call.i12, ptr noundef nonnull align 1 dereferenceable(1) %ref.tmp2)
          to label %.noexc13 unwind label %lpad3

.noexc13:                                         ; preds = %call.i.noexc11
  %cmp.i4 = icmp eq ptr %pos_inf_number, null
  br i1 %cmp.i4, label %if.then.i9, label %if.end.i5

if.then.i9:                                       ; preds = %.noexc13
  invoke void @_ZSt19__throw_logic_errorPKc(ptr noundef nonnull @.str.14) #15
          to label %invoke.cont.i10 unwind label %lpad.i8

invoke.cont.i10:                                  ; preds = %if.then.i9
  unreachable

lpad.i8:                                          ; preds = %if.end.i5, %if.then.i9
  %1 = landingpad { ptr, i32 }
          cleanup
  call void @_ZNSaIcED2Ev(ptr noundef nonnull align 1 dereferenceable(1) %pos_inf_number_) #12
  br label %lpad3.body

if.end.i5:                                        ; preds = %.noexc13
  %call.i.i6 = call noundef i64 @strlen(ptr noundef nonnull dereferenceable(1) %pos_inf_number) #12
  %add.ptr.i7 = getelementptr inbounds i8, ptr %pos_inf_number, i64 %call.i.i6
  invoke void @_ZNSt7__cxx1112basic_stringIcSt11char_traitsIcESaIcEE12_M_constructIPKcEEvT_S8_St20forward_iterator_tag(ptr noundef nonnull align 8 dereferenceable(32) %pos_inf_number_, ptr noundef nonnull %pos_inf_number, ptr noundef nonnull %add.ptr.i7)
          to label %invoke.cont4 unwind label %lpad.i8

invoke.cont4:                                     ; preds = %if.end.i5
  call void @_ZNSaIcED1Ev(ptr noundef nonnull align 1 dereferenceable(1) %ref.tmp2) #12
  %neg_inf_number_ = getelementptr inbounds i8, ptr %this, i64 72
  call void @_ZNSaIcEC1Ev(ptr noundef nonnull align 1 dereferenceable(1) %ref.tmp5) #12
  %call.i24 = invoke noundef ptr @_ZNSt7__cxx1112basic_stringIcSt11char_traitsIcESaIcEE13_M_local_dataEv(ptr noundef nonnull align 8 dereferenceable(32) %neg_inf_number_)
          to label %call.i.noexc23 unwind label %lpad6

call.i.noexc23:                                   ; preds = %invoke.cont4
  invoke void @_ZNSt7__cxx1112basic_stringIcSt11char_traitsIcESaIcEE12_Alloc_hiderC1EPcRKS3_(ptr noundef nonnull align 8 dereferenceable(8) %neg_inf_number_, ptr noundef %call.i24, ptr noundef nonnull align 1 dereferenceable(1) %ref.tmp5)
          to label %.noexc25 unwind label %lpad6

.noexc25:                                         ; preds = %call.i.noexc23
  %cmp.i16 = icmp eq ptr %neg_inf_number, null
  br i1 %cmp.i16, label %if.then.i21, label %if.end.i17

if.then.i21:                                      ; preds = %.noexc25
  invoke void @_ZSt19__throw_logic_errorPKc(ptr noundef nonnull @.str.14) #15
          to label %invoke.cont.i22 unwind label %lpad.i20

invoke.cont.i22:                                  ; preds = %if.then.i21
  unreachable

lpad.i20:                                         ; preds = %if.end.i17, %if.then.i21
  %2 = landingpad { ptr, i32 }
          cleanup
  call void @_ZNSaIcED2Ev(ptr noundef nonnull align 1 dereferenceable(1) %neg_inf_number_) #12
  br label %lpad6.body

if.end.i17:                                       ; preds = %.noexc25
  %call.i.i18 = call noundef i64 @strlen(ptr noundef nonnull dereferenceable(1) %neg_inf_number) #12
  %add.ptr.i19 = getelementptr inbounds i8, ptr %neg_inf_number, i64 %call.i.i18
  invoke void @_ZNSt7__cxx1112basic_stringIcSt11char_traitsIcESaIcEE12_M_constructIPKcEEvT_S8_St20forward_iterator_tag(ptr noundef nonnull align 8 dereferenceable(32) %neg_inf_number_, ptr noundef nonnull %neg_inf_number, ptr noundef nonnull %add.ptr.i19)
          to label %invoke.cont7 unwind label %lpad.i20

invoke.cont7:                                     ; preds = %if.end.i17
  call void @_ZNSaIcED1Ev(ptr noundef nonnull align 1 dereferenceable(1) %ref.tmp5) #12
  ret void

lpad:                                             ; preds = %call.i.noexc, %entry
  %3 = landingpad { ptr, i32 }
          cleanup
  br label %lpad.body

lpad.body:                                        ; preds = %lpad.i, %lpad
  %eh.lpad-body = phi { ptr, i32 } [ %3, %lpad ], [ %0, %lpad.i ]
  call void @_ZNSaIcED1Ev(ptr noundef nonnull align 1 dereferenceable(1) %ref.tmp) #12
  br label %ehcleanup8

lpad3:                                            ; preds = %call.i.noexc11, %invoke.cont
  %4 = landingpad { ptr, i32 }
          cleanup
  br label %lpad3.body

lpad3.body:                                       ; preds = %lpad.i8, %lpad3
  %eh.lpad-body14 = phi { ptr, i32 } [ %4, %lpad3 ], [ %1, %lpad.i8 ]
  call void @_ZNSaIcED1Ev(ptr noundef nonnull align 1 dereferenceable(1) %ref.tmp2) #12
  br label %ehcleanup

lpad6:                                            ; preds = %call.i.noexc23, %invoke.cont4
  %5 = landingpad { ptr, i32 }
          cleanup
  br label %lpad6.body

lpad6.body:                                       ; preds = %lpad.i20, %lpad6
  %eh.lpad-body26 = phi { ptr, i32 } [ %5, %lpad6 ], [ %2, %lpad.i20 ]
  call void @_ZNSaIcED1Ev(ptr noundef nonnull align 1 dereferenceable(1) %ref.tmp5) #12
  call void @_ZNSt7__cxx1112basic_stringIcSt11char_traitsIcESaIcEED1Ev(ptr noundef nonnull align 8 dereferenceable(32) %pos_inf_number_) #12
  br label %ehcleanup

ehcleanup:                                        ; preds = %lpad6.body, %lpad3.body
  %.pn = phi { ptr, i32 } [ %eh.lpad-body26, %lpad6.body ], [ %eh.lpad-body14, %lpad3.body ]
  call void @_ZNSt7__cxx1112basic_stringIcSt11char_traitsIcESaIcEED1Ev(ptr noundef nonnull align 8 dereferenceable(32) %nan_number_) #12
  br label %ehcleanup8

ehcleanup8:                                       ; preds = %ehcleanup, %lpad.body
  %.pn.pn = phi { ptr, i32 } [ %.pn, %ehcleanup ], [ %eh.lpad-body, %lpad.body ]
  resume { ptr, i32 } %.pn.pn
}